(dp0
S'METTS MARK'
p1
(dp2
S'to_messages'
p3
I807
sS'deferral_payments'
p4
I0
sS'expenses'
p5
I94299
sS'poi'
p6
I00
sS'deferred_income'
p7
I0
sS'email_address'
p8
S'mark.metts@enron.com'
p9
sS'long_term_incentive'
p10
I0
sS'salary_total_pay_ratio'
p11
F0.34448926237513267
sS'restricted_stock_deferred'
p12
I0
sS'shared_receipt_with_poi'
p13
I702
sS'loan_advances'
p14
I0
sS'from_messages'
p15
I29
sS'other'
p16
I1740
sS'to_poi_ratio'
p17
F0.0012391573729863693
sS'director_fees'
p18
I0
sS'bonus'
p19
I600000
sS'total_stock_value'
p20
I585062
sS'from_poi_to_this_person'
p21
I38
sS'from_this_person_to_poi'
p22
I1
sS'from_poi_ratio'
p23
F1.3103448275862069
sS'restricted_stock'
p24
I585062
sS'salary'
p25
I365788
sS'total_exstock_stock_ratio'
p26
F0.0
sS'total_payments'
p27
I1061827
sS'exercised_stock_options'
p28
I0
ssS'BAXTER JOHN C'
p29
(dp30
g3
I0
sg4
I1295738
sg5
I11200
sg6
I00
sg7
I-1386055
sg8
I0
sg10
I1586055
sg11
F0.047406059588491506
sg12
I0
sg13
I0
sg14
I0
sg15
I0
sg16
I2660303
sg17
I0
sg18
I0
sg19
I1200000
sg20
I10623258
sg21
I0
sg22
I0
sg23
I0
sg24
I3942714
sg25
I267102
sg26
F0.6288601858299968
sg27
I5634343
sg28
I6680544
ssS'ELLIOTT STEVEN'
p31
(dp32
g3
I0
sg4
I0
sg5
I78552
sg6
I00
sg7
I-400729
sg8
S'steven.elliott@enron.com'
p33
sg10
I0
sg11
F0.8073727712835046
sg12
I0
sg13
I0
sg14
I0
sg15
I0
sg16
I12961
sg17
I0
sg18
I0
sg19
I350000
sg20
I6678735
sg21
I0
sg22
I0
sg23
I0
sg24
I1788391
sg25
I170941
sg26
F0.7322260877246963
sg27
I211725
sg28
I4890344
ssS'CORDES WILLIAM R'
p34
(dp35
g3
I764
sg4
I0
sg5
I0
sg6
I00
sg7
I0
sg8
S'bill.cordes@enron.com'
p36
sg10
I0
sg11
I0
sg12
I0
sg13
I58
sg14
I0
sg15
I12
sg16
I0
sg17
F0.0
sg18
I0
sg19
I0
sg20
I1038185
sg21
I10
sg22
I0
sg23
F0.8333333333333334
sg24
I386335
sg25
I0
sg26
F0.6278746080900803
sg27
I0
sg28
I651850
ssS'HANNON KEVIN P'
p37
(dp38
g3
I1045
sg4
I0
sg5
I34039
sg6
I01
sg7
I-3117011
sg8
S'kevin.hannon@enron.com'
p39
sg10
I1617011
sg11
F0.8427716310680957
sg12
I0
sg13
I1035
sg14
I0
sg15
I32
sg16
I11350
sg17
F0.020095693779904306
sg18
I0
sg19
I1500000
sg20
I6391065
sg21
I32
sg22
I21
sg23
F1.0
sg24
I853064
sg25
I243293
sg26
F0.8665224027607292
sg27
I288682
sg28
I5538001
ssS'MORDAUNT KRISTINA M'
p40
(dp41
g3
I0
sg4
I0
sg5
I35018
sg6
I00
sg7
I0
sg8
S'kristina.mordaunt@enron.com'
p42
sg10
I0
sg11
F0.42495409866321304
sg12
I0
sg13
I0
sg14
I0
sg15
I0
sg16
I1411
sg17
I0
sg18
I0
sg19
I325000
sg20
I208510
sg21
I0
sg22
I0
sg23
I0
sg24
I208510
sg25
I267093
sg26
F0.0
sg27
I628522
sg28
I0
ssS'MEYER ROCKFORD G'
p43
(dp44
g3
I232
sg4
I1848227
sg5
I0
sg6
I00
sg7
I0
sg8
S'rockford.meyer@enron.com'
p45
sg10
I0
sg11
I0
sg12
I0
sg13
I22
sg14
I0
sg15
I28
sg16
I0
sg17
F0.0
sg18
I0
sg19
I0
sg20
I955873
sg21
I0
sg22
I0
sg23
F0.0
sg24
I462384
sg25
I0
sg26
F0.5162704668925684
sg27
I1848227
sg28
I493489
ssS'MCMAHON JEFFREY'
p46
(dp47
g3
I2355
sg4
I0
sg5
I137108
sg6
I00
sg7
I0
sg8
S'jeffrey.mcmahon@enron.com'
p48
sg10
I694862
sg11
F0.09035821756873738
sg12
I0
sg13
I2228
sg14
I0
sg15
I48
sg16
I297353
sg17
F0.011040339702760084
sg18
I0
sg19
I2600000
sg20
I1662855
sg21
I58
sg22
I26
sg23
F1.2083333333333333
sg24
I558801
sg25
I370448
sg26
F0.6639508556067727
sg27
I4099771
sg28
I1104054
ssS'HORTON STANLEY C'
p49
(dp50
g3
I2350
sg4
I3131860
sg5
I0
sg6
I00
sg7
I0
sg8
S'stanley.horton@enron.com'
p51
sg10
I0
sg11
I0
sg12
I0
sg13
I1074
sg14
I0
sg15
I1073
sg16
I0
sg17
F0.006382978723404255
sg18
I0
sg19
I0
sg20
I7256648
sg21
I44
sg22
I15
sg23
F0.04100652376514446
sg24
I2046079
sg25
I0
sg26
F0.7180407538025821
sg27
I3131860
sg28
I5210569
ssS'PIPER GREGORY F'
p52
(dp53
g3
I1238
sg4
I1130036
sg5
I43057
sg6
I00
sg7
I-33333
sg8
S'greg.piper@enron.com'
p54
sg10
I0
sg11
F0.11342524785210191
sg12
I-409554
sg13
I742
sg14
I0
sg15
I222
sg16
I778
sg17
F0.03877221324717286
sg18
I0
sg19
I400000
sg20
I880290
sg21
I61
sg22
I48
sg23
F0.2747747747747748
sg24
I409554
sg25
I197091
sg26
F1.0
sg27
I1737629
sg28
I880290
ssS'HUMPHREY GENE E'
p55
(dp56
g3
I128
sg4
I2964506
sg5
I4994
sg6
I00
sg7
I0
sg8
S'gene.humphrey@enron.com'
p57
sg10
I0
sg11
F0.04216598542556925
sg12
I0
sg13
I119
sg14
I0
sg15
I17
sg16
I0
sg17
F0.1328125
sg18
I0
sg19
I0
sg20
I2282768
sg21
I10
sg22
I17
sg23
F0.5882352941176471
sg24
I0
sg25
I130724
sg26
F1.0
sg27
I3100224
sg28
I2282768
ssS'UMANOFF ADAM S'
p58
(dp59
g3
I111
sg4
I0
sg5
I53122
sg6
I00
sg7
I0
sg8
S'adam.umanoff@enron.com'
p60
sg10
I0
sg11
F0.2552843485976075
sg12
I0
sg13
I41
sg14
I0
sg15
I18
sg16
I0
sg17
F0.0
sg18
I0
sg19
I788750
sg20
I0
sg21
I12
sg22
I0
sg23
F0.6666666666666666
sg24
I0
sg25
I288589
sg26
I0
sg27
I1130461
sg28
I0
ssS'BLACHMAN JEREMY M'
p61
(dp62
g3
I2475
sg4
I0
sg5
I84208
sg6
I00
sg7
I0
sg8
S'jeremy.blachman@enron.com'
p63
sg10
I831809
sg11
F0.12335799209364538
sg12
I0
sg13
I2326
sg14
I0
sg15
I14
sg16
I272
sg17
F0.0008080808080808081
sg18
I0
sg19
I850000
sg20
I954354
sg21
I25
sg22
I2
sg23
F1.7857142857142858
sg24
I189041
sg25
I248546
sg26
F0.8019173178925221
sg27
I2014835
sg28
I765313
ssS'SUNDE MARTIN'
p64
(dp65
g3
I2647
sg4
I0
sg5
I0
sg6
I00
sg7
I0
sg8
S'marty.sunde@enron.com'
p66
sg10
I476451
sg11
F0.16665124115001434
sg12
I0
sg13
I2565
sg14
I0
sg15
I38
sg16
I111122
sg17
F0.004911220249338874
sg18
I0
sg19
I700000
sg20
I698920
sg21
I37
sg22
I13
sg23
F0.9736842105263158
sg24
I698920
sg25
I257486
sg26
F0.0
sg27
I1545059
sg28
I0
ssS'GIBBS DANA R'
p67
(dp68
g3
I169
sg4
I504610
sg5
I0
sg6
I00
sg7
I0
sg8
S'dana.gibbs@enron.com'
p69
sg10
I461912
sg11
I0
sg12
I0
sg13
I23
sg14
I0
sg15
I12
sg16
I0
sg17
F0.0
sg18
I0
sg19
I0
sg20
I2218275
sg21
I0
sg22
I0
sg23
F0.0
sg24
I0
sg25
I0
sg26
F1.0
sg27
I966522
sg28
I2218275
ssS'LOWRY CHARLES P'
p70
(dp71
g3
I0
sg4
I0
sg5
I0
sg6
I00
sg7
I0
sg8
I0
sg10
I0
sg11
I0
sg12
I-153686
sg13
I0
sg14
I0
sg15
I0
sg16
I0
sg17
I0
sg18
I0
sg19
I0
sg20
I372205
sg21
I0
sg22
I0
sg23
I0
sg24
I153686
sg25
I0
sg26
F1.0
sg27
I0
sg28
I372205
ssS'COLWELL WESLEY'
p72
(dp73
g3
I1758
sg4
I27610
sg5
I16514
sg6
I01
sg7
I-144062
sg8
S'wes.colwell@enron.com'
p74
sg10
I0
sg11
F0.19360765031428986
sg12
I0
sg13
I1132
sg14
I0
sg15
I40
sg16
I101740
sg17
F0.006257110352673493
sg18
I0
sg19
I1200000
sg20
I698242
sg21
I240
sg22
I11
sg23
F6.0
sg24
I698242
sg25
I288542
sg26
F0.0
sg27
I1490344
sg28
I0
ssS'MULLER MARK S'
p75
(dp76
g3
I136
sg4
I842924
sg5
I0
sg6
I00
sg7
I-719000
sg8
S's..muller@enron.com'
p77
sg10
I1725545
sg11
F0.07859103642331366
sg12
I0
sg13
I114
sg14
I0
sg15
I16
sg16
I947
sg17
F0.0
sg18
I0
sg19
I1100000
sg20
I1416848
sg21
I12
sg22
I0
sg23
F0.75
sg24
I360528
sg25
I251654
sg26
F0.7455422176549636
sg27
I3202070
sg28
I1056320
ssS'JACKSON CHARLENE R'
p78
(dp79
g3
I258
sg4
I0
sg5
I10181
sg6
I00
sg7
I0
sg8
S'charlene.jackson@enron.com'
p80
sg10
I0
sg11
F0.5235334032447104
sg12
I0
sg13
I117
sg14
I0
sg15
I56
sg16
I2435
sg17
F0.07364341085271318
sg18
I0
sg19
I250000
sg20
I725735
sg21
I25
sg22
I19
sg23
F0.44642857142857145
sg24
I540672
sg25
I288558
sg26
F0.25500079230021977
sg27
I551174
sg28
I185063
ssS'WESTFAHL RICHARD K'
p81
(dp82
g3
I0
sg4
I0
sg5
I51870
sg6
I00
sg7
I-10800
sg8
S'dick.westfahl@enron.com'
p83
sg10
I256191
sg11
F0.08363872542266133
sg12
I0
sg13
I0
sg14
I0
sg15
I0
sg16
I401130
sg17
I0
sg18
I0
sg19
I0
sg20
I384930
sg21
I0
sg22
I0
sg23
I0
sg24
I384930
sg25
I63744
sg26
F0.0
sg27
I762135
sg28
I0
ssS'WALTERS GARETH W'
p84
(dp85
g3
I0
sg4
I53625
sg5
I33785
sg6
I00
sg7
I0
sg8
I0
sg10
I0
sg11
I0
sg12
I0
sg13
I0
sg14
I0
sg15
I0
sg16
I0
sg17
I0
sg18
I0
sg19
I0
sg20
I1030329
sg21
I0
sg22
I0
sg23
I0
sg24
I0
sg25
I0
sg26
F1.0
sg27
I87410
sg28
I1030329
ssS'WALLS JR ROBERT H'
p86
(dp87
g3
I671
sg4
I0
sg5
I50936
sg6
I00
sg7
I0
sg8
S'rob.walls@enron.com'
p88
sg10
I540751
sg11
F0.1985184402761872
sg12
I0
sg13
I215
sg14
I0
sg15
I146
sg16
I2
sg17
F0.0
sg18
I0
sg19
I850000
sg20
I5898997
sg21
I17
sg22
I0
sg23
F0.11643835616438356
sg24
I1552453
sg25
I357091
sg26
F0.7368276335790643
sg27
I1798780
sg28
I4346544
ssS'KITCHEN LOUISE'
p89
(dp90
g3
I8305
sg4
I0
sg5
I5774
sg6
I00
sg7
I0
sg8
S'louise.kitchen@enron.com'
p91
sg10
I0
sg11
F0.07819964674439903
sg12
I0
sg13
I3669
sg14
I0
sg15
I1728
sg16
I93925
sg17
F0.023359422034918725
sg18
I0
sg19
I3100000
sg20
I547143
sg21
I251
sg22
I194
sg23
F0.14525462962962962
sg24
I466101
sg25
I271442
sg26
F0.14811849918577044
sg27
I3471141
sg28
I81042
ssS'CHAN RONNIE'
p92
(dp93
g3
I0
sg4
I0
sg5
I0
sg6
I00
sg7
I-98784
sg8
I0
sg10
I0
sg11
I0
sg12
I-32460
sg13
I0
sg14
I0
sg15
I0
sg16
I0
sg17
I0
sg18
I98784
sg19
I0
sg20
I0
sg21
I0
sg22
I0
sg23
I0
sg24
I32460
sg25
I0
sg26
I0
sg27
I-98784
sg28
I0
ssS'BELFER ROBERT'
p94
(dp95
g3
I0
sg4
I-102500
sg5
I0
sg6
I00
sg7
I0
sg8
I0
sg10
I0
sg11
I0
sg12
I44093
sg13
I0
sg14
I0
sg15
I0
sg16
I0
sg17
I0
sg18
I3285
sg19
I0
sg20
I-44093
sg21
I0
sg22
I0
sg23
I0
sg24
I0
sg25
I0
sg26
F-0.07450162157258522
sg27
I102500
sg28
I3285
ssS'SHANKMAN JEFFREY A'
p96
(dp97
g3
I3221
sg4
I0
sg5
I178979
sg6
I00
sg7
I0
sg8
S'jeffrey.shankman@enron.com'
p98
sg10
I554422
sg11
F0.10007891527369252
sg12
I0
sg13
I1730
sg14
I0
sg15
I2681
sg16
I1191
sg17
F0.025768394908413535
sg18
I0
sg19
I2000000
sg20
I2072035
sg21
I94
sg22
I83
sg23
F0.0350615441999254
sg24
I630137
sg25
I304110
sg26
F0.6958849633331483
sg27
I3038702
sg28
I1441898
ssS'WODRASKA JOHN'
p99
(dp100
g3
I0
sg4
I0
sg5
I0
sg6
I00
sg7
I0
sg8
S'john.wodraska@enron.com'
p101
sg10
I0
sg11
I0
sg12
I0
sg13
I0
sg14
I0
sg15
I0
sg16
I189583
sg17
I0
sg18
I0
sg19
I0
sg20
I0
sg21
I0
sg22
I0
sg23
I0
sg24
I0
sg25
I0
sg26
I0
sg27
I189583
sg28
I0
ssS'BERGSIEKER RICHARD P'
p102
(dp103
g3
I383
sg4
I0
sg5
I59175
sg6
I00
sg7
I-485813
sg8
S'rick.bergsieker@enron.com'
p104
sg10
I180250
sg11
F0.3036632463440252
sg12
I0
sg13
I233
sg14
I0
sg15
I59
sg16
I427316
sg17
F0.0
sg18
I0
sg19
I250000
sg20
I659249
sg21
I4
sg22
I0
sg23
F0.06779661016949153
sg24
I659249
sg25
I187922
sg26
F0.0
sg27
I618850
sg28
I0
ssS'URQUHART JOHN A'
p105
(dp106
g3
I0
sg4
I0
sg5
I228656
sg6
I00
sg7
I-36666
sg8
I0
sg10
I0
sg11
I0
sg12
I0
sg13
I0
sg14
I0
sg15
I0
sg16
I0
sg17
I0
sg18
I36666
sg19
I0
sg20
I0
sg21
I0
sg22
I0
sg23
I0
sg24
I0
sg25
I0
sg26
I0
sg27
I228656
sg28
I0
ssS'BIBI PHILIPPE A'
p107
(dp108
g3
I1607
sg4
I0
sg5
I38559
sg6
I00
sg7
I0
sg8
S'philippe.bibi@enron.com'
p109
sg10
I369721
sg11
F0.10432981554439774
sg12
I0
sg13
I1336
sg14
I0
sg15
I40
sg16
I425688
sg17
F0.004978220286247666
sg18
I0
sg19
I1000000
sg20
I1843816
sg21
I23
sg22
I8
sg23
F0.575
sg24
I378082
sg25
I213625
sg26
F0.7949459165122768
sg27
I2047593
sg28
I1465734
ssS'RIEKER PAULA H'
p110
(dp111
g3
I1328
sg4
I214678
sg5
I33271
sg6
I01
sg7
I-100000
sg8
S'paula.rieker@enron.com'
p112
sg10
I0
sg11
F0.22673187153125285
sg12
I0
sg13
I1258
sg14
I0
sg15
I82
sg16
I1950
sg17
F0.03614457831325301
sg18
I0
sg19
I700000
sg20
I1918887
sg21
I35
sg22
I48
sg23
F0.4268292682926829
sg24
I283649
sg25
I249201
sg26
F0.8521804566918219
sg27
I1099100
sg28
I1635238
ssS'WHALEY DAVID A'
p113
(dp114
g3
I0
sg4
I0
sg5
I0
sg6
I00
sg7
I0
sg8
I0
sg10
I0
sg11
I0
sg12
I0
sg13
I0
sg14
I0
sg15
I0
sg16
I0
sg17
I0
sg18
I0
sg19
I0
sg20
I98718
sg21
I0
sg22
I0
sg23
I0
sg24
I0
sg25
I0
sg26
F1.0
sg27
I0
sg28
I98718
ssS'BECK SALLY W'
p115
(dp116
g3
I7315
sg4
I0
sg5
I37172
sg6
I00
sg7
I0
sg8
S'sally.beck@enron.com'
p117
sg10
I0
sg11
F0.23871389830228631
sg12
I0
sg13
I2639
sg14
I0
sg15
I4343
sg16
I566
sg17
F0.052768284347231714
sg18
I0
sg19
I700000
sg20
I126027
sg21
I144
sg22
I386
sg23
F0.033156804052498275
sg24
I126027
sg25
I231330
sg26
F0.0
sg27
I969068
sg28
I0
ssS'HAUG DAVID L'
p118
(dp119
g3
I573
sg4
I0
sg5
I475
sg6
I00
sg7
I0
sg8
S'david.haug@enron.com'
p120
sg10
I0
sg11
I0
sg12
I0
sg13
I471
sg14
I0
sg15
I19
sg16
I0
sg17
F0.012216404886561954
sg18
I0
sg19
I0
sg20
I2217299
sg21
I4
sg22
I7
sg23
F0.21052631578947367
sg24
I2217299
sg25
I0
sg26
F0.0
sg27
I475
sg28
I0
ssS'ECHOLS JOHN B'
p121
(dp122
g3
I0
sg4
I0
sg5
I21530
sg6
I00
sg7
I0
sg8
S'john.echols@enron.com'
p123
sg10
I2234774
sg11
F0.06769058998842635
sg12
I0
sg13
I0
sg14
I0
sg15
I0
sg16
I53775
sg17
I0
sg18
I0
sg19
I200000
sg20
I1008941
sg21
I0
sg22
I0
sg23
I0
sg24
I407503
sg25
I182245
sg26
F0.5961081966140735
sg27
I2692324
sg28
I601438
ssS'MENDELSOHN JOHN'
p124
(dp125
g3
I0
sg4
I0
sg5
I148
sg6
I00
sg7
I-103750
sg8
I0
sg10
I0
sg11
I0
sg12
I0
sg13
I0
sg14
I0
sg15
I0
sg16
I0
sg17
I0
sg18
I103750
sg19
I0
sg20
I0
sg21
I0
sg22
I0
sg23
I0
sg24
I0
sg25
I0
sg26
I0
sg27
I148
sg28
I0
ssS'HICKERSON GARY J'
p126
(dp127
g3
I1320
sg4
I0
sg5
I98849
sg6
I00
sg7
I0
sg8
S'gary.hickerson@enron.com'
p128
sg10
I69223
sg11
F0.10173331104488624
sg12
I0
sg13
I900
sg14
I0
sg15
I27
sg16
I1936
sg17
F0.0007575757575757576
sg18
I0
sg19
I1700000
sg20
I441096
sg21
I40
sg22
I1
sg23
F1.4814814814814814
sg24
I441096
sg25
I211788
sg26
F0.0
sg27
I2081796
sg28
I0
ssS'CLINE KENNETH W'
p129
(dp130
g3
I0
sg4
I0
sg5
I0
sg6
I00
sg7
I0
sg8
I0
sg10
I0
sg11
I0
sg12
I-472568
sg13
I0
sg14
I0
sg15
I0
sg16
I0
sg17
I0
sg18
I0
sg19
I0
sg20
I189518
sg21
I0
sg22
I0
sg23
I0
sg24
I662086
sg25
I0
sg26
F0.0
sg27
I0
sg28
I0
ssS'LEWIS RICHARD'
p131
(dp132
g3
I952
sg4
I0
sg5
I0
sg6
I00
sg7
I0
sg8
S'richard.lewis@enron.com'
p133
sg10
I0
sg11
I0
sg12
I0
sg13
I739
sg14
I0
sg15
I26
sg16
I0
sg17
F0.0
sg18
I0
sg19
I0
sg20
I850477
sg21
I10
sg22
I0
sg23
F0.38461538461538464
sg24
I0
sg25
I0
sg26
F1.0
sg27
I0
sg28
I850477
ssS'HAYES ROBERT E'
p134
(dp135
g3
I504
sg4
I7961
sg5
I0
sg6
I00
sg7
I0
sg8
S'robert.hayes@enron.com'
p136
sg10
I0
sg11
I0
sg12
I0
sg13
I50
sg14
I0
sg15
I12
sg16
I0
sg17
F0.0
sg18
I0
sg19
I0
sg20
I151418
sg21
I16
sg22
I0
sg23
F1.3333333333333333
sg24
I151418
sg25
I0
sg26
F0.0
sg27
I7961
sg28
I0
ssS'MCCARTY DANNY J'
p137
(dp138
g3
I1433
sg4
I0
sg5
I0
sg6
I00
sg7
I0
sg8
S'danny.mccarty@enron.com'
p139
sg10
I0
sg11
I0
sg12
I0
sg13
I508
sg14
I0
sg15
I215
sg16
I0
sg17
F0.0013956734124214933
sg18
I0
sg19
I0
sg20
I758931
sg21
I25
sg22
I2
sg23
F0.11627906976744186
sg24
I94556
sg25
I0
sg26
F0.8754089633971995
sg27
I0
sg28
I664375
ssS'KOPPER MICHAEL J'
p140
(dp141
g3
I0
sg4
I0
sg5
I118134
sg6
I01
sg7
I0
sg8
S'michael.kopper@enron.com'
p142
sg10
I602671
sg11
F0.08456004873686766
sg12
I0
sg13
I0
sg14
I0
sg15
I0
sg16
I907502
sg17
I0
sg18
I0
sg19
I800000
sg20
I985032
sg21
I0
sg22
I0
sg23
I0
sg24
I985032
sg25
I224305
sg26
F0.0
sg27
I2652612
sg28
I0
ssS'LEFF DANIEL P'
p143
(dp144
g3
I2822
sg4
I0
sg5
I0
sg6
I00
sg7
I0
sg8
S'dan.leff@enron.com'
p145
sg10
I1387399
sg11
F0.10274871369867744
sg12
I0
sg13
I2672
sg14
I0
sg15
I63
sg16
I3083
sg17
F0.004961020552799433
sg18
I0
sg19
I1000000
sg20
I360528
sg21
I67
sg22
I14
sg23
F1.0634920634920635
sg24
I360528
sg25
I273746
sg26
F0.0
sg27
I2664228
sg28
I0
ssS'LAVORATO JOHN J'
p146
(dp147
g3
I7259
sg4
I0
sg5
I49537
sg6
I00
sg7
I0
sg8
S'john.lavorato@enron.com'
p148
sg10
I2035380
sg11
F0.03254324841831629
sg12
I0
sg13
I3962
sg14
I0
sg15
I2585
sg16
I1552
sg17
F0.05661936905909905
sg18
I0
sg19
I8000000
sg20
I5167144
sg21
I528
sg22
I411
sg23
F0.20425531914893616
sg24
I1008149
sg25
I339288
sg26
F0.80489241252034
sg27
I10425757
sg28
I4158995
ssS'BERBERIAN DAVID'
p149
(dp150
g3
I0
sg4
I0
sg5
I11892
sg6
I00
sg7
I0
sg8
S'david.berberian@enron.com'
p151
sg10
I0
sg11
F0.9479503138212663
sg12
I0
sg13
I0
sg14
I0
sg15
I0
sg16
I0
sg17
I0
sg18
I0
sg19
I0
sg20
I2493616
sg21
I0
sg22
I0
sg23
I0
sg24
I869220
sg25
I216582
sg26
F0.6514218708895034
sg27
I228474
sg28
I1624396
ssS'DETMERING TIMOTHY J'
p152
(dp153
g3
I0
sg4
I875307
sg5
I52255
sg6
I00
sg7
I-775241
sg8
S'timothy.detmering@enron.com'
p154
sg10
I415657
sg11
F0.17474927007935526
sg12
I-315068
sg13
I0
sg14
I0
sg15
I0
sg16
I1105
sg17
I0
sg18
I0
sg19
I425000
sg20
I2027865
sg21
I0
sg22
I0
sg23
I0
sg24
I315068
sg25
I210500
sg26
F1.0
sg27
I1204583
sg28
I2027865
ssS'WAKEHAM JOHN'
p155
(dp156
g3
I0
sg4
I0
sg5
I103773
sg6
I00
sg7
I0
sg8
I0
sg10
I0
sg11
I0
sg12
I0
sg13
I0
sg14
I0
sg15
I0
sg16
I0
sg17
I0
sg18
I109298
sg19
I0
sg20
I0
sg21
I0
sg22
I0
sg23
I0
sg24
I0
sg25
I0
sg26
I0
sg27
I213071
sg28
I0
ssS'POWERS WILLIAM'
p157
(dp158
g3
I653
sg4
I0
sg5
I0
sg6
I00
sg7
I-17500
sg8
S'ken.powers@enron.com'
p159
sg10
I0
sg11
I0
sg12
I0
sg13
I12
sg14
I0
sg15
I26
sg16
I0
sg17
F0.0
sg18
I17500
sg19
I0
sg20
I0
sg21
I0
sg22
I0
sg23
F0.0
sg24
I0
sg25
I0
sg26
I0
sg27
I-17500
sg28
I0
ssS'GOLD JOSEPH'
p160
(dp161
g3
I0
sg4
I0
sg5
I0
sg6
I00
sg7
I0
sg8
S'joe.gold@enron.com'
p162
sg10
I304805
sg11
F0.12709987503336093
sg12
I0
sg13
I0
sg14
I0
sg15
I0
sg16
I819288
sg17
I0
sg18
I0
sg19
I750000
sg20
I877611
sg21
I0
sg22
I0
sg23
I0
sg24
I441096
sg25
I272880
sg26
F0.4973900737342627
sg27
I2146973
sg28
I436515
ssS'BANNANTINE JAMES M'
p163
(dp164
g3
I566
sg4
I0
sg5
I56301
sg6
I00
sg7
I-5104
sg8
S'james.bannantine@enron.com'
p165
sg10
I0
sg11
F0.0005206303884426602
sg12
I-560222
sg13
I465
sg14
I0
sg15
I29
sg16
I864523
sg17
F0.0
sg18
I0
sg19
I0
sg20
I5243487
sg21
I39
sg22
I0
sg23
F1.3448275862068966
sg24
I1757552
sg25
I477
sg26
F0.7716538631639595
sg27
I916197
sg28
I4046157
ssS'DUNCAN JOHN H'
p166
(dp167
g3
I0
sg4
I0
sg5
I0
sg6
I00
sg7
I-25000
sg8
I0
sg10
I0
sg11
I0
sg12
I0
sg13
I0
sg14
I0
sg15
I0
sg16
I0
sg17
I0
sg18
I102492
sg19
I0
sg20
I371750
sg21
I0
sg22
I0
sg23
I0
sg24
I0
sg25
I0
sg26
F1.0
sg27
I77492
sg28
I371750
ssS'SHAPIRO RICHARD S'
p168
(dp169
g3
I15149
sg4
I0
sg5
I137767
sg6
I00
sg7
I0
sg8
S'richard.shapiro@enron.com'
p170
sg10
I0
sg11
F0.25443384130082036
sg12
I0
sg13
I4527
sg14
I0
sg15
I1215
sg16
I705
sg17
F0.004290712258234867
sg18
I0
sg19
I650000
sg20
I987001
sg21
I74
sg22
I65
sg23
F0.060905349794238686
sg24
I379164
sg25
I269076
sg26
F0.6158423345062467
sg27
I1057548
sg28
I607837
ssS'SHERRIFF JOHN R'
p171
(dp172
g3
I3187
sg4
I0
sg5
I0
sg6
I00
sg7
I0
sg8
S'john.sherriff@enron.com'
p173
sg10
I554422
sg11
F0.09890233584629565
sg12
I0
sg13
I2103
sg14
I0
sg15
I92
sg16
I1852186
sg17
F0.0072168183244430495
sg18
I0
sg19
I1500000
sg20
I3128982
sg21
I28
sg22
I23
sg23
F0.30434782608695654
sg24
I1293424
sg25
I428780
sg26
F0.5866310512492562
sg27
I4335388
sg28
I1835558
ssS'SHELBY REX'
p174
(dp175
g3
I225
sg4
I0
sg5
I22884
sg6
I01
sg7
I-4167
sg8
S'rex.shelby@enron.com'
p176
sg10
I0
sg11
F0.10571664541627888
sg12
I0
sg13
I91
sg14
I0
sg15
I39
sg16
I1573324
sg17
F0.06222222222222222
sg18
I0
sg19
I200000
sg20
I2493616
sg21
I13
sg22
I14
sg23
F0.3333333333333333
sg24
I869220
sg25
I211844
sg26
F0.6514218708895034
sg27
I2003885
sg28
I1624396
ssS'LEMAISTRE CHARLES'
p177
(dp178
g3
I0
sg4
I0
sg5
I0
sg6
I00
sg7
I-25000
sg8
I0
sg10
I0
sg11
I0
sg12
I0
sg13
I0
sg14
I0
sg15
I0
sg16
I0
sg17
I0
sg18
I112492
sg19
I0
sg20
I412878
sg21
I0
sg22
I0
sg23
I0
sg24
I0
sg25
I0
sg26
F1.0
sg27
I87492
sg28
I412878
ssS'DEFFNER JOSEPH M'
p179
(dp180
g3
I714
sg4
I0
sg5
I41626
sg6
I00
sg7
I0
sg8
S'joseph.deffner@enron.com'
p181
sg10
I335349
sg11
F0.17053834487928257
sg12
I0
sg13
I552
sg14
I0
sg15
I74
sg16
I25553
sg17
F0.0056022408963585435
sg18
I0
sg19
I600000
sg20
I159211
sg21
I115
sg22
I4
sg23
F1.554054054054054
sg24
I141833
sg25
I206121
sg26
F0.10915074963413332
sg27
I1208649
sg28
I17378
ssS'KISHKILL JOSEPH G'
p182
(dp183
g3
I0
sg4
I0
sg5
I116335
sg6
I00
sg7
I-51042
sg8
S'joe.kishkill@enron.com'
p184
sg10
I0
sg11
F0.2471939122934447
sg12
I0
sg13
I0
sg14
I0
sg15
I0
sg16
I465357
sg17
I0
sg18
I0
sg19
I0
sg20
I1034346
sg21
I0
sg22
I0
sg23
I0
sg24
I1034346
sg25
I174246
sg26
F0.0
sg27
I704896
sg28
I0
ssS'WHALLEY LAWRENCE G'
p185
(dp186
g3
I6019
sg4
I0
sg5
I57838
sg6
I00
sg7
I0
sg8
S'greg.whalley@enron.com'
p187
sg10
I808346
sg11
F0.10910869608904103
sg12
I0
sg13
I3920
sg14
I0
sg15
I556
sg16
I301026
sg17
F0.003987373317826882
sg18
I0
sg19
I3000000
sg20
I6079137
sg21
I186
sg22
I24
sg23
F0.3345323741007194
sg24
I2796177
sg25
I510364
sg26
F0.5400371796194098
sg27
I4677574
sg28
I3282960
ssS'MCCONNELL MICHAEL S'
p188
(dp189
g3
I3329
sg4
I0
sg5
I81364
sg6
I00
sg7
I0
sg8
S'mike.mcconnell@enron.com'
p190
sg10
I554422
sg11
F0.17371478715729402
sg12
I0
sg13
I2189
sg14
I0
sg15
I2742
sg16
I540
sg17
F0.058275758486031844
sg18
I0
sg19
I1100000
sg20
I3101279
sg21
I92
sg22
I194
sg23
F0.03355215171407731
sg24
I1478269
sg25
I365038
sg26
F0.5233356947246603
sg27
I2101364
sg28
I1623010
ssS'PIRO JIM'
p191
(dp192
g3
I58
sg4
I0
sg5
I0
sg6
I00
sg7
I0
sg8
S'jim.piro@enron.com'
p193
sg10
I0
sg11
I0
sg12
I0
sg13
I3
sg14
I0
sg15
I16
sg16
I0
sg17
F0.017241379310344827
sg18
I0
sg19
I0
sg20
I47304
sg21
I0
sg22
I1
sg23
F0.0
sg24
I47304
sg25
I0
sg26
F0.0
sg27
I0
sg28
I0
ssS'DELAINEY DAVID W'
p194
(dp195
g3
I3093
sg4
I0
sg5
I86174
sg6
I01
sg7
I0
sg8
S'david.delainey@enron.com'
p196
sg10
I1294981
sg11
F0.07690914386942319
sg12
I0
sg13
I2097
sg14
I0
sg15
I3069
sg16
I1661
sg17
F0.19689621726479145
sg18
I0
sg19
I3000000
sg20
I3614261
sg21
I66
sg22
I609
sg23
F0.021505376344086023
sg24
I1323148
sg25
I365163
sg26
F0.6339091172441614
sg27
I4747979
sg28
I2291113
ssS'SULLIVAN-SHAKLOVITZ COLLEEN'
p197
(dp198
g3
I0
sg4
I181993
sg5
I0
sg6
I00
sg7
I0
sg8
I0
sg10
I554422
sg11
F0.162883897229816
sg12
I0
sg13
I0
sg14
I0
sg15
I0
sg16
I162
sg17
I0
sg18
I0
sg19
I100000
sg20
I1362375
sg21
I0
sg22
I0
sg23
I0
sg24
I0
sg25
I162779
sg26
F1.0
sg27
I999356
sg28
I1362375
ssS'WROBEL BRUCE'
p199
(dp200
g3
I0
sg4
I0
sg5
I0
sg6
I00
sg7
I0
sg8
I0
sg10
I0
sg11
I0
sg12
I0
sg13
I0
sg14
I0
sg15
I0
sg16
I0
sg17
I0
sg18
I0
sg19
I0
sg20
I139130
sg21
I0
sg22
I0
sg23
I0
sg24
I0
sg25
I0
sg26
F1.0
sg27
I0
sg28
I139130
ssS'LINDHOLM TOD A'
p201
(dp202
g3
I0
sg4
I204075
sg5
I57727
sg6
I00
sg7
I0
sg8
S'tod.lindholm@enron.com'
p203
sg10
I175000
sg11
F0.2699622897421934
sg12
I0
sg13
I0
sg14
I0
sg15
I0
sg16
I2630
sg17
I0
sg18
I0
sg19
I200000
sg20
I3064208
sg21
I0
sg22
I0
sg23
I0
sg24
I514847
sg25
I236457
sg26
F0.8319804008083003
sg27
I875889
sg28
I2549361
ssS'MEYER JEROME J'
p204
(dp205
g3
I0
sg4
I0
sg5
I2151
sg6
I00
sg7
I-38346
sg8
I0
sg10
I0
sg11
I0
sg12
I0
sg13
I0
sg14
I0
sg15
I0
sg16
I0
sg17
I0
sg18
I38346
sg19
I0
sg20
I0
sg21
I0
sg22
I0
sg23
I0
sg24
I0
sg25
I0
sg26
I0
sg27
I2151
sg28
I0
ssS'LAY KENNETH L'
p206
(dp207
g3
I4273
sg4
I202911
sg5
I99832
sg6
I01
sg7
I-300000
sg8
S'kenneth.lay@enron.com'
p208
sg10
I3600000
sg11
F0.010354607410233042
sg12
I0
sg13
I2411
sg14
I81525000
sg15
I36
sg16
I10359729
sg17
F0.003744441844137608
sg18
I0
sg19
I7000000
sg20
I49110078
sg21
I123
sg22
I16
sg23
F3.4166666666666665
sg24
I14761694
sg25
I1072321
sg26
F0.6994161972212709
sg27
I103559793
sg28
I34348384
ssS'BUTTS ROBERT H'
p209
(dp210
g3
I0
sg4
I0
sg5
I9410
sg6
I00
sg7
I-75000
sg8
S'bob.butts@enron.com'
p211
sg10
I175000
sg11
F0.20566192349372672
sg12
I0
sg13
I0
sg14
I0
sg15
I0
sg16
I150656
sg17
I0
sg18
I0
sg19
I750000
sg20
I417619
sg21
I0
sg22
I0
sg23
I0
sg24
I417619
sg25
I261516
sg26
F0.0
sg27
I1271582
sg28
I0
ssS'OLSON CINDY K'
p212
(dp213
g3
I1184
sg4
I77716
sg5
I63791
sg6
I00
sg7
I0
sg8
S'cindy.olson@enron.com'
p214
sg10
I100000
sg11
F0.2490077991339004
sg12
I0
sg13
I856
sg14
I0
sg15
I52
sg16
I972
sg17
F0.01266891891891892
sg18
I0
sg19
I750000
sg20
I2606763
sg21
I20
sg22
I15
sg23
F0.38461538461538464
sg24
I969729
sg25
I329078
sg26
F0.6279949500587511
sg27
I1321557
sg28
I1637034
ssS'MCDONALD REBECCA'
p215
(dp216
g3
I894
sg4
I0
sg5
I0
sg6
I00
sg7
I0
sg8
S'rebecca.mcdonald@enron.com'
p217
sg10
I0
sg11
I0
sg12
I0
sg13
I720
sg14
I0
sg15
I13
sg16
I0
sg17
F0.0011185682326621924
sg18
I0
sg19
I0
sg20
I1691366
sg21
I54
sg22
I1
sg23
F4.153846153846154
sg24
I934065
sg25
I0
sg26
F0.4477451953036776
sg27
I0
sg28
I757301
ssS'CUMBERLAND MICHAEL S'
p218
(dp219
g3
I0
sg4
I0
sg5
I22344
sg6
I00
sg7
I0
sg8
I0
sg10
I275000
sg11
F0.2288478580516761
sg12
I0
sg13
I0
sg14
I0
sg15
I0
sg16
I713
sg17
I0
sg18
I0
sg19
I325000
sg20
I207940
sg21
I0
sg22
I0
sg23
I0
sg24
I207940
sg25
I184899
sg26
F0.0
sg27
I807956
sg28
I0
ssS'GAHN ROBERT S'
p220
(dp221
g3
I0
sg4
I73122
sg5
I50080
sg6
I00
sg7
I-1042
sg8
I0
sg10
I0
sg11
F0.21320363985631563
sg12
I0
sg13
I0
sg14
I0
sg15
I0
sg16
I76547
sg17
I0
sg18
I0
sg19
I509870
sg20
I318607
sg21
I0
sg22
I0
sg23
I0
sg24
I235370
sg25
I192008
sg26
F0.2612528914932817
sg27
I900585
sg28
I83237
ssS'MCCLELLAN GEORGE'
p222
(dp223
g3
I1744
sg4
I0
sg5
I228763
sg6
I00
sg7
I-125000
sg8
S'george.mcclellan@enron.com'
p224
sg10
I0
sg11
F0.1997424859508494
sg12
I0
sg13
I1469
sg14
I0
sg15
I49
sg16
I51587
sg17
F0.0
sg18
I0
sg19
I900000
sg20
I947861
sg21
I52
sg22
I0
sg23
F1.0612244897959184
sg24
I441096
sg25
I263413
sg26
F0.534640627686971
sg27
I1318763
sg28
I506765
ssS'HERMANN ROBERT J'
p225
(dp226
g3
I0
sg4
I0
sg5
I48357
sg6
I00
sg7
I-280000
sg8
S'robert.hermann@enron.com'
p227
sg10
I150000
sg11
F0.20244384995001777
sg12
I0
sg13
I0
sg14
I0
sg15
I0
sg16
I416441
sg17
I0
sg18
I0
sg19
I700000
sg20
I668132
sg21
I0
sg22
I0
sg23
I0
sg24
I480632
sg25
I262663
sg26
F0.2806331682960852
sg27
I1297461
sg28
I187500
ssS'SCRIMSHAW MATTHEW'
p228
(dp229
g3
I0
sg4
I0
sg5
I0
sg6
I00
sg7
I0
sg8
S'matthew.scrimshaw@enron.com'
p230
sg10
I0
sg11
I0
sg12
I0
sg13
I0
sg14
I0
sg15
I0
sg16
I0
sg17
I0
sg18
I0
sg19
I0
sg20
I759557
sg21
I0
sg22
I0
sg23
I0
sg24
I0
sg25
I0
sg26
F1.0
sg27
I0
sg28
I759557
ssS'GATHMANN WILLIAM D'
p231
(dp232
g3
I0
sg4
I0
sg5
I0
sg6
I00
sg7
I0
sg8
I0
sg10
I0
sg11
I0
sg12
I-72419
sg13
I0
sg14
I0
sg15
I0
sg16
I0
sg17
I0
sg18
I0
sg19
I0
sg20
I1945360
sg21
I0
sg22
I0
sg23
I0
sg24
I264013
sg25
I0
sg26
F0.9015123164864087
sg27
I0
sg28
I1753766
ssS'HAEDICKE MARK E'
p233
(dp234
g3
I4009
sg4
I2157527
sg5
I76169
sg6
I00
sg7
I-934484
sg8
S'mark.haedicke@enron.com'
p235
sg10
I983346
sg11
F0.09694705841959127
sg12
I-329825
sg13
I1847
sg14
I0
sg15
I1941
sg16
I52382
sg17
F0.015215764529807932
sg18
I0
sg19
I1150000
sg20
I803094
sg21
I180
sg22
I61
sg23
F0.09273570324574962
sg24
I524169
sg25
I374125
sg26
F0.7580059121348186
sg27
I3859065
sg28
I608750
ssS'BOWEN JR RAYMOND M'
p236
(dp237
g3
I1858
sg4
I0
sg5
I65907
sg6
I01
sg7
I-833
sg8
S'raymond.bowen@enron.com'
p238
sg10
I974293
sg11
F0.10436100837994162
sg12
I0
sg13
I1593
sg14
I0
sg15
I27
sg16
I1621
sg17
F0.008073196986006458
sg18
I0
sg19
I1350000
sg20
I252055
sg21
I140
sg22
I15
sg23
F5.185185185185185
sg24
I252055
sg25
I278601
sg26
F0.0
sg27
I2669589
sg28
I0
ssS'GILLIS JOHN'
p239
(dp240
g3
I0
sg4
I0
sg5
I0
sg6
I00
sg7
I0
sg8
I0
sg10
I0
sg11
I0
sg12
I0
sg13
I0
sg14
I0
sg15
I0
sg16
I0
sg17
I0
sg18
I0
sg19
I0
sg20
I85641
sg21
I0
sg22
I0
sg23
I0
sg24
I75838
sg25
I0
sg26
F0.11446620193598861
sg27
I0
sg28
I9803
ssS'FITZGERALD JAY L'
p241
(dp242
g3
I936
sg4
I0
sg5
I23870
sg6
I00
sg7
I0
sg8
S'jay.fitzgerald@enron.com'
p243
sg10
I556416
sg11
F0.14076122180545456
sg12
I0
sg13
I723
sg14
I0
sg15
I16
sg16
I285414
sg17
F0.008547008547008548
sg18
I0
sg19
I350000
sg20
I1621236
sg21
I1
sg22
I8
sg23
F0.0625
sg24
I956775
sg25
I199157
sg26
F0.40984841195236227
sg27
I1414857
sg28
I664461
ssS'MORAN MICHAEL P'
p244
(dp245
g3
I672
sg4
I0
sg5
I0
sg6
I00
sg7
I0
sg8
S'michael.moran@enron.com'
p246
sg10
I0
sg11
I0
sg12
I0
sg13
I127
sg14
I0
sg15
I19
sg16
I0
sg17
F0.0
sg18
I0
sg19
I0
sg20
I221141
sg21
I0
sg22
I0
sg23
F0.0
sg24
I161602
sg25
I0
sg26
F0.2692354651557151
sg27
I0
sg28
I59539
ssS'REDMOND BRIAN L'
p247
(dp248
g3
I1671
sg4
I0
sg5
I14689
sg6
I00
sg7
I0
sg8
S'brian.redmond@enron.com'
p249
sg10
I0
sg11
F0.8682943449685732
sg12
I0
sg13
I1063
sg14
I0
sg15
I221
sg16
I0
sg17
F0.029323758228605626
sg18
I0
sg19
I0
sg20
I7890324
sg21
I204
sg22
I49
sg23
F0.9230769230769231
sg24
I381285
sg25
I96840
sg26
F0.951676889314051
sg27
I111529
sg28
I7509039
ssS'BAZELIDES PHILIP J'
p250
(dp251
g3
I0
sg4
I684694
sg5
I0
sg6
I00
sg7
I0
sg8
I0
sg10
I93750
sg11
F0.0939595598835533
sg12
I0
sg13
I0
sg14
I0
sg15
I0
sg16
I874
sg17
I0
sg18
I0
sg19
I0
sg20
I1599641
sg21
I0
sg22
I0
sg23
I0
sg24
I0
sg25
I80818
sg26
F1.0
sg27
I860136
sg28
I1599641
ssS'BELDEN TIMOTHY N'
p252
(dp253
g3
I7991
sg4
I2144013
sg5
I17355
sg6
I01
sg7
I-2334434
sg8
S'tim.belden@enron.com'
p254
sg10
I0
sg11
F0.03889738132153562
sg12
I0
sg13
I5521
sg14
I0
sg15
I484
sg16
I210698
sg17
F0.013515204605180828
sg18
I0
sg19
I5249999
sg20
I1110705
sg21
I228
sg22
I108
sg23
F0.47107438016528924
sg24
I157569
sg25
I213999
sg26
F0.8581360487258093
sg27
I5501630
sg28
I953136
ssS'DURAN WILLIAM D'
p255
(dp256
g3
I904
sg4
I0
sg5
I25785
sg6
I00
sg7
I0
sg8
S'w.duran@enron.com'
p257
sg10
I1105218
sg11
F0.10065242637929396
sg12
I0
sg13
I599
sg14
I0
sg15
I12
sg16
I1568
sg17
F0.00331858407079646
sg18
I0
sg19
I750000
sg20
I1640910
sg21
I106
sg22
I3
sg23
F8.833333333333334
sg24
I189041
sg25
I210692
sg26
F0.8847950222742259
sg27
I2093263
sg28
I1451869
ssS'THORN TERENCE H'
p258
(dp259
g3
I266
sg4
I16586
sg5
I46145
sg6
I00
sg7
I0
sg8
S'terence.thorn@enron.com'
p260
sg10
I200000
sg11
F0.24366917438419755
sg12
I0
sg13
I73
sg14
I0
sg15
I41
sg16
I426629
sg17
F0.0
sg18
I0
sg19
I0
sg20
I4817796
sg21
I0
sg22
I0
sg23
F0.0
sg24
I365320
sg25
I222093
sg26
F0.9241727960254025
sg27
I911453
sg28
I4452476
ssS'FASTOW ANDREW S'
p261
(dp262
g3
I0
sg4
I0
sg5
I55921
sg6
I01
sg7
I-1386055
sg8
S'andrew.fastow@enron.com'
p263
sg10
I1736055
sg11
F0.1817998806146489
sg12
I0
sg13
I0
sg14
I0
sg15
I0
sg16
I277464
sg17
I0
sg18
I0
sg19
I1300000
sg20
I1794412
sg21
I0
sg22
I0
sg23
I0
sg24
I1794412
sg25
I440698
sg26
F0.0
sg27
I2424083
sg28
I0
ssS'FOY JOE'
p264
(dp265
g3
I57
sg4
I181755
sg5
I0
sg6
I00
sg7
I0
sg8
S'tracy.foy@enron.com'
p266
sg10
I0
sg11
I0
sg12
I0
sg13
I2
sg14
I0
sg15
I13
sg16
I0
sg17
F0.0
sg18
I0
sg19
I0
sg20
I343434
sg21
I0
sg22
I0
sg23
F0.0
sg24
I0
sg25
I0
sg26
F1.0
sg27
I181755
sg28
I343434
ssS'CALGER CHRISTOPHER F'
p267
(dp268
g3
I2598
sg4
I0
sg5
I35818
sg6
I01
sg7
I-262500
sg8
S'christopher.calger@enron.com'
p269
sg10
I375304
sg11
F0.14651951415759315
sg12
I0
sg13
I2188
sg14
I0
sg15
I144
sg16
I486
sg17
F0.00962278675904542
sg18
I0
sg19
I1250000
sg20
I126027
sg21
I199
sg22
I25
sg23
F1.3819444444444444
sg24
I126027
sg25
I240189
sg26
F0.0
sg27
I1639297
sg28
I0
ssS'RICE KENNETH D'
p270
(dp271
g3
I905
sg4
I0
sg5
I46950
sg6
I01
sg7
I-3504386
sg8
S'ken.rice@enron.com'
p272
sg10
I1617011
sg11
F0.8328601128601129
sg12
I0
sg13
I864
sg14
I0
sg15
I18
sg16
I174839
sg17
F0.004419889502762431
sg18
I0
sg19
I1750000
sg20
I22542539
sg21
I42
sg22
I4
sg23
F2.3333333333333335
sg24
I2748364
sg25
I420636
sg26
F0.8780809916753388
sg27
I505050
sg28
I19794175
ssS'KAMINSKI WINCENTY J'
p273
(dp274
g3
I4607
sg4
I0
sg5
I83585
sg6
I00
sg7
I0
sg8
S'vince.kaminski@enron.com'
p275
sg10
I323466
sg11
F0.2531244795601116
sg12
I0
sg13
I583
sg14
I0
sg15
I14368
sg16
I4669
sg17
F0.03711742999782939
sg18
I0
sg19
I400000
sg20
I976037
sg21
I41
sg22
I171
sg23
F0.002853563474387528
sg24
I126027
sg25
I275101
sg26
F0.8708788703706929
sg27
I1086821
sg28
I850010
ssS'LOCKHART EUGENE E'
p276
(dp277
g3
I0
sg4
I0
sg5
I0
sg6
I00
sg7
I0
sg8
I0
sg10
I0
sg11
I0
sg12
I0
sg13
I0
sg14
I0
sg15
I0
sg16
I0
sg17
I0
sg18
I0
sg19
I0
sg20
I0
sg21
I0
sg22
I0
sg23
I0
sg24
I0
sg25
I0
sg26
I0
sg27
I0
sg28
I0
ssS'COX DAVID'
p278
(dp279
g3
I102
sg4
I0
sg5
I27861
sg6
I00
sg7
I-41250
sg8
S'chip.cox@enron.com'
p280
sg10
I0
sg11
F0.28535500044035145
sg12
I0
sg13
I71
sg14
I0
sg15
I33
sg16
I494
sg17
F0.0392156862745098
sg18
I0
sg19
I800000
sg20
I495633
sg21
I0
sg22
I4
sg23
F0.0
sg24
I378082
sg25
I314288
sg26
F0.23717347311417925
sg27
I1101393
sg28
I117551
ssS'OVERDYKE JR JERE C'
p281
(dp282
g3
I0
sg4
I0
sg5
I18834
sg6
I00
sg7
I0
sg8
S'jere.overdyke@enron.com'
p283
sg10
I135836
sg11
F0.38008783483527964
sg12
I0
sg13
I0
sg14
I0
sg15
I0
sg16
I176
sg17
I0
sg18
I0
sg19
I0
sg20
I7307594
sg21
I0
sg22
I0
sg23
I0
sg24
I2041016
sg25
I94941
sg26
F0.7206993163550137
sg27
I249787
sg28
I5266578
ssS'PEREIRA PAULO V. FERRAZ'
p284
(dp285
g3
I0
sg4
I0
sg5
I27942
sg6
I00
sg7
I-101250
sg8
I0
sg10
I0
sg11
I0
sg12
I0
sg13
I0
sg14
I0
sg15
I0
sg16
I0
sg17
I0
sg18
I101250
sg19
I0
sg20
I0
sg21
I0
sg22
I0
sg23
I0
sg24
I0
sg25
I0
sg26
I0
sg27
I27942
sg28
I0
ssS'STABLER FRANK'
p286
(dp287
g3
I0
sg4
I0
sg5
I16514
sg6
I00
sg7
I0
sg8
S'frank.stabler@enron.com'
p288
sg10
I0
sg11
F0.21536264698715119
sg12
I0
sg13
I0
sg14
I0
sg15
I0
sg16
I356071
sg17
I0
sg18
I0
sg19
I500000
sg20
I511734
sg21
I0
sg22
I0
sg23
I0
sg24
I511734
sg25
I239502
sg26
F0.0
sg27
I1112087
sg28
I0
ssS'SKILLING JEFFREY K'
p289
(dp290
g3
I3627
sg4
I0
sg5
I29336
sg6
I01
sg7
I0
sg8
S'jeff.skilling@enron.com'
p291
sg10
I1920000
sg11
F0.12798506826665756
sg12
I0
sg13
I2042
sg14
I0
sg15
I108
sg16
I22122
sg17
F0.008271298593879239
sg18
I0
sg19
I5600000
sg20
I26093672
sg21
I88
sg22
I30
sg23
F0.8148148148148148
sg24
I6843672
sg25
I1111258
sg26
F0.7377267561269261
sg27
I8682716
sg28
I19250000
ssS'BLAKE JR. NORMAN P'
p292
(dp293
g3
I0
sg4
I0
sg5
I1279
sg6
I00
sg7
I-113784
sg8
I0
sg10
I0
sg11
I0
sg12
I0
sg13
I0
sg14
I0
sg15
I0
sg16
I0
sg17
I0
sg18
I113784
sg19
I0
sg20
I0
sg21
I0
sg22
I0
sg23
I0
sg24
I0
sg25
I0
sg26
I0
sg27
I1279
sg28
I0
ssS'SHERRICK JEFFREY B'
p294
(dp295
g3
I613
sg4
I0
sg5
I0
sg6
I00
sg7
I0
sg8
S'jeffrey.sherrick@enron.com'
p296
sg10
I0
sg11
I0
sg12
I0
sg13
I583
sg14
I0
sg15
I25
sg16
I0
sg17
F0.02936378466557912
sg18
I0
sg19
I0
sg20
I1832468
sg21
I39
sg22
I18
sg23
F1.56
sg24
I405999
sg25
I0
sg26
F0.7784414243522942
sg27
I0
sg28
I1426469
ssS'PRENTICE JAMES'
p297
(dp298
g3
I0
sg4
I564348
sg5
I0
sg6
I00
sg7
I0
sg8
S'james.prentice@enron.com'
p299
sg10
I0
sg11
I0
sg12
I0
sg13
I0
sg14
I0
sg15
I0
sg16
I0
sg17
I0
sg18
I0
sg19
I0
sg20
I1095040
sg21
I0
sg22
I0
sg23
I0
sg24
I208809
sg25
I0
sg26
F0.8093138150204559
sg27
I564348
sg28
I886231
ssS'GRAY RODNEY'
p300
(dp301
g3
I0
sg4
I93585
sg5
I0
sg6
I00
sg7
I0
sg8
I0
sg10
I365625
sg11
F0.005768938951282772
sg12
I0
sg13
I0
sg14
I0
sg15
I0
sg16
I680833
sg17
I0
sg18
I0
sg19
I0
sg20
I0
sg21
I0
sg22
I0
sg23
I0
sg24
I0
sg25
I6615
sg26
I0
sg27
I1146658
sg28
I0
ssS'PICKERING MARK R'
p302
(dp303
g3
I898
sg4
I0
sg5
I31653
sg6
I00
sg7
I0
sg8
S'mark.pickering@enron.com'
p304
sg10
I0
sg11
F0.47237450331364617
sg12
I0
sg13
I728
sg14
I400000
sg15
I67
sg16
I0
sg17
F0.0
sg18
I0
sg19
I300000
sg20
I28798
sg21
I7
sg22
I0
sg23
F0.1044776119402985
sg24
I0
sg25
I655037
sg26
F1.0
sg27
I1386690
sg28
I28798
ssS'NOLES JAMES L'
p305
(dp306
g3
I0
sg4
I774401
sg5
I0
sg6
I00
sg7
I0
sg8
I0
sg10
I0
sg11
I0
sg12
I-94556
sg13
I0
sg14
I0
sg15
I0
sg16
I0
sg17
I0
sg18
I0
sg19
I0
sg20
I368705
sg21
I0
sg22
I0
sg23
I0
sg24
I463261
sg25
I0
sg26
F0.0
sg27
I774401
sg28
I0
ssS'KEAN STEVEN J'
p307
(dp308
g3
I12754
sg4
I0
sg5
I41953
sg6
I00
sg7
I0
sg8
S'steven.kean@enron.com'
p309
sg10
I300000
sg11
F0.23137791684453757
sg12
I0
sg13
I3639
sg14
I0
sg15
I6759
sg16
I1231
sg17
F0.03034342167163243
sg18
I0
sg19
I1000000
sg20
I6153642
sg21
I140
sg22
I387
sg23
F0.020713123243083296
sg24
I4131594
sg25
I404338
sg26
F0.32859370109603386
sg27
I1747522
sg28
I2022048
ssS'FOWLER PEGGY'
p310
(dp311
g3
I517
sg4
I0
sg5
I0
sg6
I00
sg7
I0
sg8
S'kulvinder.fowler@enron.com'
p312
sg10
I0
sg11
I0
sg12
I0
sg13
I10
sg14
I0
sg15
I36
sg16
I0
sg17
F0.0
sg18
I0
sg19
I0
sg20
I1884748
sg21
I0
sg22
I0
sg23
F0.0
sg24
I560170
sg25
I0
sg26
F0.7027878528057863
sg27
I0
sg28
I1324578
ssS'WASAFF GEORGE'
p313
(dp314
g3
I400
sg4
I831299
sg5
I0
sg6
I00
sg7
I-583325
sg8
S'george.wasaff@enron.com'
p315
sg10
I200000
sg11
F0.2513507895919837
sg12
I0
sg13
I337
sg14
I0
sg15
I30
sg16
I1425
sg17
F0.0175
sg18
I0
sg19
I325000
sg20
I2056427
sg21
I22
sg22
I7
sg23
F0.7333333333333333
sg24
I388167
sg25
I259996
sg26
F0.8112420231790382
sg27
I1034395
sg28
I1668260
ssS'WHITE JR THOMAS E'
p316
(dp317
g3
I0
sg4
I0
sg5
I81353
sg6
I00
sg7
I0
sg8
S'thomas.white@enron.com'
p318
sg10
I0
sg11
F0.1641592899766796
sg12
I0
sg13
I0
sg14
I0
sg15
I0
sg16
I1085463
sg17
I0
sg18
I0
sg19
I450000
sg20
I15144123
sg21
I0
sg22
I0
sg23
I0
sg24
I13847074
sg25
I317543
sg26
F0.08564701963923563
sg27
I1934359
sg28
I1297049
ssS'CHRISTODOULOU DIOMEDES'
p319
(dp320
g3
I0
sg4
I0
sg5
I0
sg6
I00
sg7
I0
sg8
S'diomedes.christodoulou@enron.com'
p321
sg10
I0
sg11
I0
sg12
I0
sg13
I0
sg14
I0
sg15
I0
sg16
I0
sg17
I0
sg18
I0
sg19
I0
sg20
I6077885
sg21
I0
sg22
I0
sg23
I0
sg24
I950730
sg25
I0
sg26
F0.8435755201027989
sg27
I0
sg28
I5127155
ssS'ALLEN PHILLIP K'
p322
(dp323
g3
I2902
sg4
I2869717
sg5
I13868
sg6
I00
sg7
I-3081055
sg8
S'phillip.allen@enron.com'
p324
sg10
I304805
sg11
F0.04503458847276874
sg12
I-126027
sg13
I1407
sg14
I0
sg15
I2195
sg16
I152
sg17
F0.022398345968297727
sg18
I0
sg19
I4175000
sg20
I1729541
sg21
I47
sg22
I65
sg23
F0.0214123006833713
sg24
I126027
sg25
I201955
sg26
F1.0
sg27
I4484442
sg28
I1729541
ssS'SHARP VICTORIA T'
p325
(dp326
g3
I3136
sg4
I187469
sg5
I116337
sg6
I00
sg7
I0
sg8
S'vicki.sharp@enron.com'
p327
sg10
I422158
sg11
F0.15740200988131386
sg12
I0
sg13
I2477
sg14
I0
sg15
I136
sg16
I2401
sg17
F0.001913265306122449
sg18
I0
sg19
I600000
sg20
I494136
sg21
I24
sg22
I6
sg23
F0.17647058823529413
sg24
I213063
sg25
I248146
sg26
F0.5688170867939191
sg27
I1576511
sg28
I281073
ssS'JAEDICKE ROBERT'
p328
(dp329
g3
I0
sg4
I0
sg5
I0
sg6
I00
sg7
I-25000
sg8
I0
sg10
I0
sg11
I0
sg12
I-44093
sg13
I0
sg14
I0
sg15
I0
sg16
I0
sg17
I0
sg18
I108750
sg19
I0
sg20
I431750
sg21
I0
sg22
I0
sg23
I0
sg24
I44093
sg25
I0
sg26
F1.0
sg27
I83750
sg28
I431750
ssS'WINOKUR JR. HERBERT S'
p330
(dp331
g3
I0
sg4
I0
sg5
I1413
sg6
I00
sg7
I-25000
sg8
I0
sg10
I0
sg11
I0
sg12
I0
sg13
I0
sg14
I0
sg15
I0
sg16
I0
sg17
I0
sg18
I108579
sg19
I0
sg20
I0
sg21
I0
sg22
I0
sg23
I0
sg24
I0
sg25
I0
sg26
I0
sg27
I84992
sg28
I0
ssS'BROWN MICHAEL'
p332
(dp333
g3
I1486
sg4
I0
sg5
I49288
sg6
I00
sg7
I0
sg8
S'michael.brown@enron.com'
p334
sg10
I0
sg11
I0
sg12
I0
sg13
I761
sg14
I0
sg15
I41
sg16
I0
sg17
F0.0006729475100942127
sg18
I0
sg19
I0
sg20
I0
sg21
I13
sg22
I1
sg23
F0.3170731707317073
sg24
I0
sg25
I0
sg26
I0
sg27
I49288
sg28
I0
ssS'BADUM JAMES P'
p335
(dp336
g3
I0
sg4
I178980
sg5
I3486
sg6
I00
sg7
I0
sg8
I0
sg10
I0
sg11
I0
sg12
I0
sg13
I0
sg14
I0
sg15
I0
sg16
I0
sg17
I0
sg18
I0
sg19
I0
sg20
I257817
sg21
I0
sg22
I0
sg23
I0
sg24
I0
sg25
I0
sg26
F1.0
sg27
I182466
sg28
I257817
ssS'HUGHES JAMES A'
p337
(dp338
g3
I719
sg4
I0
sg5
I0
sg6
I00
sg7
I0
sg8
S'james.hughes@enron.com'
p339
sg10
I0
sg11
I0
sg12
I0
sg13
I589
sg14
I0
sg15
I34
sg16
I0
sg17
F0.006954102920723227
sg18
I0
sg19
I0
sg20
I1118394
sg21
I35
sg22
I5
sg23
F1.0294117647058822
sg24
I363428
sg25
I0
sg26
F0.6750447516706992
sg27
I0
sg28
I754966
ssS'REYNOLDS LAWRENCE'
p340
(dp341
g3
I0
sg4
I51365
sg5
I8409
sg6
I00
sg7
I-200000
sg8
I0
sg10
I156250
sg11
F0.1936726028265416
sg12
I-140264
sg13
I0
sg14
I0
sg15
I0
sg16
I202052
sg17
I0
sg18
I0
sg19
I100000
sg20
I4221891
sg21
I0
sg22
I0
sg23
I0
sg24
I201483
sg25
I76399
sg26
F0.9854996256416853
sg27
I394475
sg28
I4160672
ssS'DIMICHELE RICHARD G'
p342
(dp343
g3
I0
sg4
I0
sg5
I35812
sg6
I00
sg7
I0
sg8
S'richard.dimichele@enron.com'
p344
sg10
I694862
sg11
F0.11096758610409556
sg12
I0
sg13
I0
sg14
I0
sg15
I0
sg16
I374689
sg17
I0
sg18
I0
sg19
I1000000
sg20
I8317782
sg21
I0
sg22
I0
sg23
I0
sg24
I126027
sg25
I262788
sg26
F0.9848484848484849
sg27
I2368151
sg28
I8191755
ssS'BHATNAGAR SANJAY'
p345
(dp346
g3
I523
sg4
I0
sg5
I0
sg6
I00
sg7
I0
sg8
S'sanjay.bhatnagar@enron.com'
p347
sg10
I0
sg11
I0
sg12
I15456290
sg13
I463
sg14
I0
sg15
I29
sg16
I137864
sg17
F0.0019120458891013384
sg18
I137864
sg19
I0
sS'total_stock_value'
p348
I0
sg21
I0
sg22
I1
sg23
F0.0
sg24
I-2604490
sg25
I0
sg26
I0
sg27
I15456290
sg28
I2604490
ssS'CARTER REBECCA C'
p349
(dp350
g3
I312
sg4
I0
sg5
I0
sg6
I00
sg7
I-159792
sg8
S'rebecca.carter@enron.com'
p351
sg10
I75000
sg11
F0.5482256568325875
sg12
I-307301
sg13
I196
sg14
I0
sg15
I15
sg16
I540
sg17
F0.022435897435897436
sg18
I0
sg19
I300000
sg20
I0
sg21
I29
sg22
I7
sg23
F1.9333333333333333
sg24
I307301
sg25
I261809
sg26
I0
sg27
I477557
sg28
I0
ssS'BUCHANAN HAROLD G'
p352
(dp353
g3
I1088
sg4
I0
sg5
I600
sg6
I00
sg7
I0
sg8
S'john.buchanan@enron.com'
p354
sg10
I304805
sg11
F0.23516811945721608
sg12
I0
sg13
I23
sg14
I0
sg15
I125
sg16
I1215
sg17
F0.0
sg18
I0
sg19
I500000
sg20
I1014505
sg21
I0
sg22
I0
sg23
F0.0
sg24
I189041
sg25
I248017
sg26
F0.8136618350821336
sg27
I1054637
sg28
I825464
ssS'YEAP SOON'
p355
(dp356
g3
I0
sg4
I0
sg5
I55097
sg6
I00
sg7
I0
sg8
I0
sg10
I0
sg11
I0
sg12
I0
sg13
I0
sg14
I0
sg15
I0
sg16
I0
sg17
I0
sg18
I0
sg19
I0
sg20
I192758
sg21
I0
sg22
I0
sg23
I0
sg24
I0
sg25
I0
sg26
F1.0
sg27
I55097
sg28
I192758
ssS'MURRAY JULIA H'
p357
(dp358
g3
I2192
sg4
I0
sg5
I57580
sg6
I00
sg7
I0
sg8
S'julia.murray@enron.com'
p359
sg10
I125000
sg11
F0.2823020115883644
sg12
I0
sg13
I395
sg14
I0
sg15
I45
sg16
I330
sg17
F0.0009124087591240876
sg18
I0
sg19
I400000
sg20
I597461
sg21
I11
sg22
I2
sg23
F0.24444444444444444
sg24
I196983
sg25
I229284
sg26
F0.6702998187329382
sg27
I812194
sg28
I400478
ssS'GARLAND C KEVIN'
p360
(dp361
g3
I209
sg4
I0
sg5
I48405
sg6
I00
sg7
I0
sg8
S'kevin.garland@enron.com'
p362
sg10
I375304
sg11
F0.14806932023551056
sg12
I0
sg13
I178
sg14
I0
sg15
I44
sg16
I60814
sg17
F0.1291866028708134
sg18
I0
sg19
I850000
sg20
I896153
sg21
I10
sg22
I27
sg23
F0.22727272727272727
sg24
I259907
sg25
I231946
sg26
F0.7099747476156415
sg27
I1566469
sg28
I636246
ssS'DODSON KEITH'
p363
(dp364
g3
I176
sg4
I0
sg5
I28164
sg6
I00
sg7
I0
sg8
S'keith.dodson@enron.com'
p365
sg10
I0
sg11
F0.6907617341947422
sg12
I0
sg13
I114
sg14
I0
sg15
I14
sg16
I774
sg17
F0.017045454545454544
sg18
I0
sg19
I70000
sg20
I0
sg21
I10
sg22
I3
sg23
F0.7142857142857143
sg24
I0
sg25
I221003
sg26
I0
sg27
I319941
sg28
I0
ssS'YEAGER F SCOTT'
p366
(dp367
g3
I0
sg4
I0
sg5
I53947
sg6
I01
sg7
I0
sg8
S'scott.yeager@enron.com'
p368
sg10
I0
sg11
F0.4396419650291424
sg12
I0
sg13
I0
sg14
I0
sg15
I0
sg16
I147950
sg17
I0
sg18
I0
sg19
I0
sg20
I11884758
sg21
I0
sg22
I0
sg23
I0
sg24
I3576206
sg25
I158403
sg26
F0.6990930736662875
sg27
I360300
sg28
I8308552
ssS'HIRKO JOSEPH'
p369
(dp370
g3
I0
sg4
I10259
sg5
I77978
sg6
I01
sg7
I0
sg8
S'joe.hirko@enron.com'
p371
sg10
I0
sg11
I0
sg12
I0
sg13
I0
sg14
I0
sg15
I0
sg16
I2856
sg17
I0
sg18
I0
sg19
I0
sg20
I30766064
sg21
I0
sg22
I0
sg23
I0
sg24
I0
sg25
I0
sg26
F1.0
sg27
I91093
sg28
I30766064
ssS'DIETRICH JANET R'
p372
(dp373
g3
I2572
sg4
I0
sg5
I3475
sg6
I00
sg7
I0
sg8
S'janet.dietrich@enron.com'
p374
sg10
I556416
sg11
F0.1773175352224516
sg12
I0
sg13
I1902
sg14
I0
sg15
I63
sg16
I473
sg17
F0.005443234836702955
sg18
I0
sg19
I600000
sg20
I1865087
sg21
I305
sg22
I14
sg23
F4.841269841269841
sg24
I315068
sg25
I250100
sg26
F0.8310706149364614
sg27
I1410464
sg28
I1550019
ssS'DERRICK JR. JAMES V'
p375
(dp376
g3
I2181
sg4
I0
sg5
I51124
sg6
I00
sg7
I-1284000
sg8
S'james.derrick@enron.com'
p377
sg10
I484000
sg11
F0.8936333557781484
sg12
I-1787380
sg13
I1401
sg14
I0
sg15
I909
sg16
I7482
sg17
F0.009170105456212746
sg18
I0
sg19
I800000
sg20
I8831913
sg21
I64
sg22
I20
sg23
F0.0704070407040704
sg24
I1787380
sg25
I492375
sg26
F1.0
sg27
I550981
sg28
I8831913
ssS'FREVERT MARK A'
p378
(dp379
g3
I3275
sg4
I6426990
sg5
I86987
sg6
I00
sg7
I-3367011
sg8
S'mark.frevert@enron.com'
p380
sg10
I1617011
sg11
F0.06149428518599881
sg12
I0
sg13
I2979
sg14
I2000000
sg15
I21
sg16
I7427621
sg17
F0.00183206106870229
sg18
I0
sg19
I2000000
sg20
I14622185
sg21
I242
sg22
I6
sg23
F11.523809523809524
sg24
I4188667
sg25
I1060932
sg26
F0.713540281428528
sg27
I17252530
sg28
I10433518
ssS'PAI LOU L'
p381
(dp382
g3
I0
sg4
I0
sg5
I32047
sg6
I00
sg7
I0
sg8
S'lou.pai@enron.com'
p383
sg10
I0
sg11
F0.08384466458324195
sg12
I0
sg13
I0
sg14
I0
sg15
I0
sg16
I1829457
sg17
I0
sg18
I0
sg19
I1000000
sg20
I23817930
sg21
I0
sg22
I0
sg23
I0
sg24
I8453763
sg25
I261879
sg26
F0.6450672665508715
sg27
I3123383
sg28
I15364167
ssS'BAY FRANKLIN R'
p384
(dp385
g3
I0
sg4
I260455
sg5
I129142
sg6
I00
sg7
I-201641
sg8
S'frank.bay@enron.com'
p386
sg10
I0
sg11
F0.2895640428369836
sg12
I-82782
sg13
I0
sg14
I0
sg15
I0
sg16
I69
sg17
I0
sg18
I0
sg19
I400000
sg20
I63014
sg21
I0
sg22
I0
sg23
I0
sg24
I145796
sg25
I239671
sg26
F0.0
sg27
I827696
sg28
I0
ssS'HAYSLETT RODERICK J'
p387
(dp388
g3
I2649
sg4
I0
sg5
I0
sg6
I00
sg7
I0
sg8
S'rod.hayslett@enron.com'
p389
sg10
I0
sg11
I0
sg12
I0
sg13
I571
sg14
I0
sg15
I1061
sg16
I0
sg17
F0.014345035862589657
sg18
I0
sg19
I0
sg20
I346663
sg21
I35
sg22
I38
sg23
F0.03298774740810556
sg24
I346663
sg25
I0
sg26
F0.0
sg27
I0
sg28
I0
ssS'FUGH JOHN L'
p390
(dp391
g3
I0
sg4
I50591
sg5
I0
sg6
I00
sg7
I0
sg8
I0
sg10
I0
sg11
I0
sg12
I0
sg13
I0
sg14
I0
sg15
I0
sg16
I0
sg17
I0
sg18
I0
sg19
I0
sg20
I176378
sg21
I0
sg22
I0
sg23
I0
sg24
I0
sg25
I0
sg26
F1.0
sg27
I50591
sg28
I176378
ssS'FALLON JAMES B'
p392
(dp393
g3
I1755
sg4
I0
sg5
I95924
sg6
I00
sg7
I0
sg8
S'jim.fallon@enron.com'
p394
sg10
I374347
sg11
F0.08285087886321722
sg12
I0
sg13
I1604
sg14
I0
sg15
I75
sg16
I401481
sg17
F0.021082621082621083
sg18
I0
sg19
I2500000
sg20
I2332399
sg21
I42
sg22
I37
sg23
F0.56
sg24
I1392142
sg25
I304588
sg26
F0.40312870996771993
sg27
I3676340
sg28
I940257
ssS'KOENIG MARK E'
p395
(dp396
g3
I2374
sg4
I0
sg5
I127017
sg6
I01
sg7
I0
sg8
S'mark.koenig@enron.com'
p397
sg10
I300000
sg11
F0.19525129124535962
sg12
I0
sg13
I2271
sg14
I0
sg15
I61
sg16
I150458
sg17
F0.006318449873631003
sg18
I0
sg19
I700000
sg20
I1920055
sg21
I53
sg22
I15
sg23
F0.8688524590163934
sg24
I1248318
sg25
I309946
sg26
F0.3498529990026327
sg27
I1587421
sg28
I671737
ssS'SAVAGE FRANK'
p398
(dp399
g3
I0
sg4
I0
sg5
I0
sg6
I00
sg7
I-121284
sg8
I0
sg10
I0
sg11
I0
sg12
I0
sg13
I0
sg14
I0
sg15
I0
sg16
I0
sg17
I0
sg18
I125034
sg19
I0
sg20
I0
sg21
I0
sg22
I0
sg23
I0
sg24
I0
sg25
I0
sg26
I0
sg27
I3750
sg28
I0
ssS'IZZO LAWRENCE L'
p400
(dp401
g3
I496
sg4
I0
sg5
I28093
sg6
I00
sg7
I0
sg8
S'larry.izzo@enron.com'
p402
sg10
I312500
sg11
F0.043076466107225916
sg12
I0
sg13
I437
sg14
I0
sg15
I19
sg16
I1553729
sg17
F0.010080645161290322
sg18
I0
sg19
I0
sg20
I5819980
sg21
I28
sg22
I5
sg23
F1.4736842105263157
sg24
I3654808
sg25
I85274
sg26
F0.3720239588452194
sg27
I1979596
sg28
I2165172
ssS'TILNEY ELIZABETH A'
p403
(dp404
g3
I460
sg4
I0
sg5
I0
sg6
I00
sg7
I-575000
sg8
S'elizabeth.tilney@enron.com'
p405
sg10
I275000
sg11
F0.6192847646303266
sg12
I0
sg13
I379
sg14
I0
sg15
I19
sg16
I152055
sg17
F0.02391304347826087
sg18
I0
sg19
I300000
sg20
I1168042
sg21
I10
sg22
I11
sg23
F0.5263157894736842
sg24
I576792
sg25
I247338
sg26
F0.5061889897794771
sg27
I399393
sg28
I591250
ssS'MARTIN AMANDA K'
p406
(dp407
g3
I1522
sg4
I85430
sg5
I8211
sg6
I00
sg7
I0
sg8
S'a..martin@enron.com'
p408
sg10
I5145434
sg11
F0.04157087366076144
sg12
I0
sg13
I477
sg14
I0
sg15
I230
sg16
I2818454
sg17
F0.0
sg18
I0
sg19
I0
sg20
I2070306
sg21
I8
sg22
I0
sg23
F0.034782608695652174
sg24
I0
sg25
I349487
sg26
F1.0
sg27
I8407016
sg28
I2070306
ssS'BUY RICHARD B'
p409
(dp410
g3
I3523
sg4
I649584
sg5
I0
sg6
I00
sg7
I-694862
sg8
S'rick.buy@enron.com'
p411
sg10
I769862
sg11
F0.14031740856865596
sg12
I0
sg13
I2333
sg14
I0
sg15
I1053
sg16
I400572
sg17
F0.02015327845586148
sg18
I0
sg19
I900000
sg20
I3444470
sg21
I156
sg22
I71
sg23
F0.14814814814814814
sg24
I901657
sg25
I330546
sg26
F0.7382305550636237
sg27
I2355702
sg28
I2542813
ssS'GRAMM WENDY L'
p412
(dp413
g3
I0
sg4
I0
sg5
I0
sg6
I00
sg7
I0
sg8
I0
sg10
I0
sg11
I0
sg12
I0
sg13
I0
sg14
I0
sg15
I0
sg16
I0
sg17
I0
sg18
I119292
sg19
I0
sg20
I0
sg21
I0
sg22
I0
sg23
I0
sg24
I0
sg25
I0
sg26
I0
sg27
I119292
sg28
I0
ssS'CAUSEY RICHARD A'
p414
(dp415
g3
I1892
sg4
I0
sg5
I30674
sg6
I01
sg7
I-235000
sg8
S'richard.causey@enron.com'
p416
sg10
I350000
sg11
F0.22217376460729532
sg12
I0
sg13
I1585
sg14
I0
sg15
I49
sg16
I307895
sg17
F0.006342494714587738
sg18
I0
sg19
I1000000
sg20
I2502063
sg21
I58
sg22
I12
sg23
F1.183673469387755
sg24
I2502063
sg25
I415189
sg26
F0.0
sg27
I1868758
sg28
I0
ssS'TAYLOR MITCHELL S'
p417
(dp418
g3
I533
sg4
I227449
sg5
I0
sg6
I00
sg7
I0
sg8
S'mitchell.taylor@enron.com'
p419
sg10
I0
sg11
F0.24272259607948654
sg12
I0
sg13
I300
sg14
I0
sg15
I29
sg16
I0
sg17
F0.0
sg18
I0
sg19
I600000
sg20
I3745048
sg21
I0
sg22
I0
sg23
F0.0
sg24
I563798
sg25
I265214
sg26
F0.849455067064561
sg27
I1092663
sg28
I3181250
ssS'DONAHUE JR JEFFREY M'
p420
(dp421
g3
I865
sg4
I0
sg5
I96268
sg6
I00
sg7
I-300000
sg8
S'jeff.donahue@enron.com'
p422
sg10
I0
sg11
F0.3181248287201973
sg12
I0
sg13
I772
sg14
I0
sg15
I22
sg16
I891
sg17
F0.012716763005780347
sg18
I0
sg19
I800000
sg20
I1080988
sg21
I188
sg22
I11
sg23
F8.545454545454545
sg24
I315068
sg25
I278601
sg26
F0.7085370050361336
sg27
I875760
sg28
I765920
ssS'GLISAN JR BEN F'
p423
(dp424
g3
I873
sg4
I0
sg5
I125978
sg6
I01
sg7
I0
sg8
S'ben.glisan@enron.com'
p425
sg10
I71023
sg11
F0.21612705968164342
sg12
I0
sg13
I874
sg14
I0
sg15
I16
sg16
I200308
sg17
F0.006872852233676976
sg18
I0
sg19
I600000
sg20
I778546
sg21
I52
sg22
I6
sg23
F3.25
sg24
I393818
sg25
I274975
sg26
F0.49416219465516487
sg27
I1272284
sg28
I384728
ss.